; Function Attrs: nounwind uwtable
define internal i32 @lsarpc_dissect_lsa_CreateTrustedDomainEx2_request(ptr noundef %0, i32 noundef %1, ptr noundef %2, ptr noundef %3, ptr noundef initializes((80, 88)) %4, ptr noundef %5) #0 {
  %7 = getelementptr inbounds nuw i8, ptr %4, i64 80
  store ptr @.str.1064, ptr %7, align 8
  %8 = load i32, ptr @hf_lsarpc_lsa_CreateTrustedDomainEx2_policy_handle, align 4
  %9 = tail call i32 @dissect_ndr_toplevel_pointer(ptr noundef %0, i32 noundef %1, ptr noundef %2, ptr noundef %3, ptr noundef %4, ptr noundef %5, ptr noundef nonnull @lsarpc_dissect_element_lsa_CreateTrustedDomainEx2_policy_handle_, i32 noundef 1, ptr noundef nonnull @.str.1151, i32 noundef %8) #5
  %10 = tail call i32 @dissect_deferred_pointers(ptr noundef %2, ptr noundef %0, i32 noundef %9, ptr noundef %4, ptr noundef %5) #5
  %11 = load i32, ptr @hf_lsarpc_lsa_CreateTrustedDomainEx2_info, align 4
  %12 = tail call i32 @dissect_ndr_toplevel_pointer(ptr noundef %0, i32 noundef %10, ptr noundef %2, ptr noundef %3, ptr noundef %4, ptr noundef %5, ptr noundef nonnull @lsarpc_dissect_element_lsa_CreateTrustedDomainEx2_info_, i32 noundef 1, ptr noundef nonnull @.str.1183, i32 noundef %11) #5
  %13 = tail call i32 @dissect_deferred_pointers(ptr noundef %2, ptr noundef %0, i32 noundef %12, ptr noundef %4, ptr noundef %5) #5
  %14 = load i32, ptr @hf_lsarpc_lsa_CreateTrustedDomainEx2_auth_info_internal, align 4
  %15 = tail call i32 @dissect_ndr_toplevel_pointer(ptr noundef %0, i32 noundef %13, ptr noundef %2, ptr noundef %3, ptr noundef %4, ptr noundef %5, ptr noundef nonnull @lsarpc_dissect_element_lsa_CreateTrustedDomainEx2_auth_info_internal_, i32 noundef 1, ptr noundef nonnull @.str.1189, i32 noundef %14) #5
  %16 = tail call i32 @dissect_deferred_pointers(ptr noundef %2, ptr noundef %0, i32 noundef %15, ptr noundef %4, ptr noundef %5) #5
  %17 = load i32, ptr @hf_lsarpc_lsa_CreateTrustedDomainEx2_access_mask, align 4
  %18 = tail call i32 @lsarpc_dissect_bitmap_lsa_TrustedAccessMask(ptr noundef %0, i32 noundef %16, ptr noundef %2, ptr noundef %3, ptr noundef %4, ptr noundef %5, i32 noundef %17, i32 poison)
  %19 = tail call i32 @dissect_deferred_pointers(ptr noundef %2, ptr noundef %0, i32 noundef %18, ptr noundef %4, ptr noundef %5) #5
  ret i32 %19
}